target datalayout = "e-m:e-p270:32:32-p271:32:32-p272:64:64-i64:64-i128:128-f80:128-n8:16:32:64-S128"
target triple = "x86_64-pc-linux-gnu"

%struct.h5tools_str_t = type { ptr, i64, i64 }
%struct.h5tools_context_t = type { i64, i64, i32, i32, [32 x i64], [32 x i64], i32, i64, i32, i64, i32, i32, [32 x i64], [32 x i64], i64, ptr, ptr, i32, i32 }
%struct.h5tool_format_t = type { i8, ptr, ptr, ptr, ptr, ptr, ptr, ptr, ptr, ptr, ptr, ptr, ptr, ptr, ptr, ptr, ptr, ptr, i32, i32, i32, ptr, ptr, ptr, i32, ptr, ptr, ptr, ptr, ptr, ptr, ptr, ptr, ptr, ptr, ptr, ptr, ptr, ptr, ptr, ptr, i32, i64, ptr, ptr, ptr, ptr, ptr, i32, ptr, i32, i32, ptr, i32, ptr, ptr, ptr, ptr, i32, i32 }

@verbose_g = internal global i32 0, align 4
@rawoutstream = external global ptr, align 8
@.str.73 = private unnamed_addr constant [2 x i8] c"\0A\00", align 1
@.str.86 = private unnamed_addr constant [11 x i8] c"    %-10s \00", align 1
@.str.98 = private unnamed_addr constant [6 x i8] c"Type:\00", align 1

; Function Attrs: nounwind uwtable
define internal i32 @datatype_list2(i64 noundef %0, ptr noundef %1) #0 {
  %3 = alloca i64, align 8
  %4 = alloca ptr, align 8
  %5 = alloca i64, align 8
  %6 = alloca %struct.h5tools_str_t, align 8
  %7 = alloca %struct.h5tools_context_t, align 8
  %8 = alloca ptr, align 8
  store i64 %0, ptr %3, align 8, !tbaa !11
  store ptr %1, ptr %4, align 8, !tbaa !13
  %9 = load i32, ptr @verbose_g, align 4, !tbaa !4
  %10 = icmp sgt i32 %9, 0
  br i1 %10, label %11, label %23

11:                                               ; preds = %2
  call void @llvm.lifetime.start.p0(i64 8, ptr %5) #12
  store i64 0, ptr %5, align 8, !tbaa !11
  call void @llvm.lifetime.start.p0(i64 24, ptr %6) #12
  call void @llvm.lifetime.start.p0(i64 1120, ptr %7) #12
  call void @llvm.lifetime.start.p0(i64 8, ptr %8) #12
  store ptr @ls_dataformat, ptr %8, align 8, !tbaa !52
  call void @llvm.memset.p0.i64(ptr align 8 %7, i8 0, i64 1120, i1 false)
  call void @llvm.memset.p0.i64(ptr align 8 %6, i8 0, i64 24, i1 false)
  %12 = call ptr @h5tools_str_reset(ptr noundef %6)
  %13 = call ptr (ptr, ptr, ...) @h5tools_str_append(ptr noundef %6, ptr noundef @.str.86, ptr noundef @.str.98)
  %14 = load i64, ptr %3, align 8, !tbaa !11
  call void @print_type(ptr noundef %6, i64 noundef %14, i32 noundef 15)
  %15 = call ptr (ptr, ptr, ...) @h5tools_str_append(ptr noundef %6, ptr noundef @.str.73)
  %16 = load ptr, ptr @rawoutstream, align 8, !tbaa !28
  %17 = load ptr, ptr %8, align 8, !tbaa !52
  %18 = load ptr, ptr %8, align 8, !tbaa !52
  %19 = getelementptr inbounds nuw %struct.h5tool_format_t, ptr %18, i32 0, i32 41
  %20 = load i32, ptr %19, align 8, !tbaa !54
  %21 = zext i32 %20 to i64
  %22 = call zeroext i1 @h5tools_render_element(ptr noundef %16, ptr noundef %17, ptr noundef %7, ptr noundef %6, ptr noundef %5, i64 noundef %21, i64 noundef 0, i64 noundef 0)
  call void @h5tools_str_close(ptr noundef %6)
  call void @llvm.lifetime.end.p0(i64 8, ptr %8) #12
  call void @llvm.lifetime.end.p0(i64 1120, ptr %7) #12
  call void @llvm.lifetime.end.p0(i64 24, ptr %6) #12
  call void @llvm.lifetime.end.p0(i64 8, ptr %5) #12
  br label %23

23:                                               ; preds = %11, %2
  ret i32 0
}