; Function Attrs: nounwind uwtable
define internal noundef i32 @datatype_list2(i64 noundef %0, ptr readnone captures(none) %1) #4 {
  %3 = alloca i64, align 8
  %4 = alloca %struct.h5tools_str_t, align 8
  %5 = alloca %struct.h5tools_context_t, align 8
  %6 = load i32, ptr @verbose_g, align 4, !tbaa !17
  %7 = icmp sgt i32 %6, 0
  br i1 %7, label %8, label %16

8:                                                ; preds = %2
  call void @llvm.lifetime.start.p0(i64 8, ptr nonnull %3) #20
  store i64 0, ptr %3, align 8, !tbaa !44
  call void @llvm.lifetime.start.p0(i64 24, ptr nonnull %4) #20
  call void @llvm.lifetime.start.p0(i64 1120, ptr nonnull %5) #20
  call void @llvm.memset.p0.i64(ptr noundef nonnull align 8 dereferenceable(1120) %5, i8 0, i64 1120, i1 false)
  call void @llvm.memset.p0.i64(ptr noundef nonnull align 8 dereferenceable(24) %4, i8 0, i64 24, i1 false)
  %9 = call ptr @h5tools_str_reset(ptr noundef nonnull %4) #20
  %10 = call ptr (ptr, ptr, ...) @h5tools_str_append(ptr noundef nonnull %4, ptr noundef nonnull @.str.86, ptr noundef nonnull @.str.98) #20
  call fastcc void @print_type(ptr noundef %4, i64 noundef %0, i32 noundef 15)
  %11 = call ptr (ptr, ptr, ...) @h5tools_str_append(ptr noundef nonnull %4, ptr noundef nonnull @.str.73) #20
  %12 = load ptr, ptr @rawoutstream, align 8, !tbaa !26
  %13 = load i32, ptr getelementptr inbounds nuw (i8, ptr @ls_dataformat, i64 320), align 8, !tbaa !47
  %14 = zext i32 %13 to i64
  %15 = call zeroext i1 @h5tools_render_element(ptr noundef %12, ptr noundef nonnull @ls_dataformat, ptr noundef nonnull %5, ptr noundef nonnull %4, ptr noundef nonnull %3, i64 noundef %14, i64 noundef 0, i64 noundef 0) #20
  call void @h5tools_str_close(ptr noundef nonnull %4) #20
  call void @llvm.lifetime.end.p0(i64 1120, ptr nonnull %5) #20
  call void @llvm.lifetime.end.p0(i64 24, ptr nonnull %4) #20
  call void @llvm.lifetime.end.p0(i64 8, ptr nonnull %3) #20
  br label %16

16:                                               ; preds = %8, %2
  ret i32 0
}